; Function Attrs: inlinehint nounwind uwtable
define internal void @Abc_Print(i32 %0, ptr readnone captures(none) %1, ...) unnamed_addr #11 {
  %3 = alloca [1 x %struct.__va_list_tag], align 16
  call void @llvm.lifetime.start.p0(i64 24, ptr nonnull %3) #20
  %4 = load i32, ptr @enable_dbg_outs, align 4, !tbaa !113
  %.not = icmp eq i32 %4, 0
  br i1 %.not, label %26, label %5

5:                                                ; preds = %2
  %6 = load ptr, ptr @s_GlobalFrame, align 8, !tbaa !3
  %.not.i = icmp eq ptr %6, null
  br i1 %.not.i, label %Abc_FrameIsBridgeMode.exit.thread, label %Abc_FrameIsBridgeMode.exit

Abc_FrameIsBridgeMode.exit:                       ; preds = %5
  %7 = getelementptr inbounds nuw i8, ptr %6, i64 96
  %8 = load i32, ptr %7, align 8, !tbaa !72
  %.not8 = icmp eq i32 %8, 0
  br i1 %.not8, label %Abc_FrameIsBridgeMode.exit.thread, label %10

Abc_FrameIsBridgeMode.exit.thread:                ; preds = %5, %Abc_FrameIsBridgeMode.exit
  %9 = tail call i32 (ptr, ...) @printf(ptr noundef nonnull dereferenceable(1) @.str.9)
  br label %13

10:                                               ; preds = %Abc_FrameIsBridgeMode.exit
  %11 = load ptr, ptr @stdout, align 8, !tbaa !78
  %12 = tail call i32 @Gia_ManToBridgeText(ptr noundef %11, i32 noundef 9, ptr noundef nonnull @.str.9) #20
  br label %13

13:                                               ; preds = %10, %Abc_FrameIsBridgeMode.exit.thread
  call void @llvm.va_start.p0(ptr nonnull %3)
  %14 = load ptr, ptr @s_GlobalFrame, align 8, !tbaa !3
  %.not.i10 = icmp eq ptr %14, null
  br i1 %.not.i10, label %Abc_FrameIsBridgeMode.exit11.thread, label %Abc_FrameIsBridgeMode.exit11

Abc_FrameIsBridgeMode.exit11:                     ; preds = %13
  %15 = getelementptr inbounds nuw i8, ptr %14, i64 96
  %16 = load i32, ptr %15, align 8, !tbaa !72
  %.not9 = icmp eq i32 %16, 0
  br i1 %.not9, label %Abc_FrameIsBridgeMode.exit11.thread, label %17

17:                                               ; preds = %Abc_FrameIsBridgeMode.exit11
  %18 = call ptr @vnsprintf(ptr noundef nonnull @.str.5, ptr noundef nonnull %3) #20
  %19 = load ptr, ptr @stdout, align 8, !tbaa !78
  %20 = call i64 @strlen(ptr noundef nonnull dereferenceable(1) %18) #23
  %21 = trunc i64 %20 to i32
  %22 = call i32 @Gia_ManToBridgeText(ptr noundef %19, i32 noundef %21, ptr noundef nonnull %18) #20
  call void @free(ptr noundef %18) #20
  br label %25

Abc_FrameIsBridgeMode.exit11.thread:              ; preds = %13, %Abc_FrameIsBridgeMode.exit11
  %23 = load ptr, ptr @stdout, align 8, !tbaa !78, !noalias !114
  %24 = call i32 @vfprintf(ptr noundef %23, ptr noundef nonnull @.str.5, ptr noundef nonnull %3) #20
  br label %25

25:                                               ; preds = %Abc_FrameIsBridgeMode.exit11.thread, %17
  call void @llvm.va_end.p0(ptr nonnull %3)
  br label %26

26:                                               ; preds = %2, %25
  call void @llvm.lifetime.end.p0(i64 24, ptr nonnull %3) #20
  ret void
}